(dp0
S'z.MCollection.29.cdc'
p1
(lp2
S'ses-vol1.gif=5374\r\n'
p3
aS'ses-vol2.gif=12638\r\n'
p4
aS'ses-Remix_Album.gif=8355\r\n'
p5
asS'mfj-00.cdc'
p6
(lp7
sS'MCollec.39.cdc'
p8
(lp9
sS'z.Animation.00.cdc'
p10
(lp11
sS'z.MFC.pop.02.cdc'
p12
(lp13
s.