(lp0
ccopy_reg
_reconstructor
p1
(centry
Entry
p2
c__builtin__
object
p3
Ntp4
Rp5
(dp6
S'content'
p7
S'    (1) &#20462;&#25913;edit.pih, &#20351;&#29992;Karrigell_QuickForm&#32452;&#32455;&#39029;&#38754;&#20803;&#32032;, &#36825;&#36793;&#21482;&#27604;&#20197;&#21069;&#22686;&#21152;&#20102;tag, &#35835;&#32773;&#21487;&#20197;&#28155;&#21152;&#26356;&#22810;&#30340;&#19996;&#35199;, &#21478;&#22806;&#27880;&#24847;, &#24212;&#38656;&#35201;&#24050;&#20462;&#25913;&#21407;&#26469;&#30340;Karrigell_QuickForm.py;\r\n    (2) &#26032;&#24314;entry.py, &#32534;&#20889;&#33258;&#23450;&#20041;&#25991;&#31456;&#31867;Entry;\r\n    (3) &#20462;&#25913;save_entry.py, &#20027;&#35201;&#26159;&#23545;&#26032;&#24314;&#25991;&#31456;&#21644;&#20462;&#25913;&#25991;&#31456;&#20004;&#31181;&#24773;&#20917;&#36827;&#34892;&#22788;&#29702;;&#20320;&#22909;'
p8
sS'tag'
p9
(lp10
S'&#21621;&#21621;'
p11
asS'id'
p12
I1
sS'title'
p13
S'&#20320;&#22909;'
p14
sbag1
(g2
g3
Ntp15
Rp16
(dp17
S'content'
p18
S'    (4) &#20462;&#25913;index.pih, &#20027;&#35201;&#29992;&#20110;&#26174;&#31034;&#25152;&#26377;&#25991;&#31456;, &#35814;&#32454;&#21487;&#21442;&#32771;&#20855;&#20307;&#20195;&#30721;;\r\n    (5) ok, localhost:8081/mysite/&#26597;&#30475;&#39318;&#39029;, localhost:8081/mysite/edit&#20026;&#32534;&#36753;&#39029;&#38754;;\r\n    (6) &#36827;&#19968;&#27493;, &#20462;&#25913;edit.pih, &#22686;&#21152;js&#26657;&#39564;&#36755;&#20837;.&#36825;&#36793;&#26377;&#28857;&#38382;&#39064;?'
p19
sS'tag'
p20
(lp21
S'heh'
p22
asS'id'
p23
I2
sS'title'
p24
S'heh'
p25
sba.